; Function Attrs: mustprogress nounwind uwtable
define void @_ZN6icu_7519ModulusSubstitutionD2Ev(ptr noundef nonnull align 8 dereferenceable(48) %this) unnamed_addr #0 align 2 {
entry:
  store ptr getelementptr inbounds ({ [17 x ptr] }, ptr @_ZTVN6icu_7514NFSubstitutionE, i64 0, i32 0, i64 2), ptr %this, align 8
  %numberFormat.i = getelementptr inbounds i8, ptr %this, i64 24
  %0 = load ptr, ptr %numberFormat.i, align 8
  %isnull.i = icmp eq ptr %0, null
  br i1 %isnull.i, label %_ZN6icu_7514NFSubstitutionD2Ev.exit, label %delete.notnull.i

delete.notnull.i:                                 ; preds = %entry
  %vtable.i = load ptr, ptr %0, align 8
  %vfn.i = getelementptr inbounds i8, ptr %vtable.i, i64 8
  %1 = load ptr, ptr %vfn.i, align 8
  tail call void %1(ptr noundef nonnull align 8 dereferenceable(368) %0) #11
  br label %_ZN6icu_7514NFSubstitutionD2Ev.exit

_ZN6icu_7514NFSubstitutionD2Ev.exit:              ; preds = %entry, %delete.notnull.i
  store ptr null, ptr %numberFormat.i, align 8
  tail call void @_ZN6icu_757UObjectD2Ev(ptr noundef nonnull align 8 dereferenceable(8) %this) #11
  ret void
}